; Function Attrs: nofree noinline norecurse nosync nounwind memory(argmem: readwrite) uwtable
define internal fastcc void @avg_8tap_1d_v_c(ptr noundef captures(none) %0, i64 noundef %1, ptr noundef readonly captures(none) %2, i64 noundef %3, i32 noundef range(i32 4, 65) %4, i32 noundef %5, ptr noundef readonly captures(none) %6) unnamed_addr #8 {
  %8 = lshr i64 %3, 1
  %9 = lshr i64 %1, 1
  %.idx90.i = mul i64 %8, -6
  %10 = getelementptr inbounds nuw i8, ptr %6, i64 2
  %11 = and i64 %3, -2
  %12 = getelementptr inbounds nuw i8, ptr %6, i64 4
  %13 = getelementptr inbounds nuw i8, ptr %6, i64 6
  %14 = getelementptr inbounds nuw i8, ptr %6, i64 8
  %15 = getelementptr inbounds nuw i8, ptr %6, i64 10
  %.idx91.i = shl nuw nsw i64 %8, 2
  %16 = getelementptr inbounds nuw i8, ptr %6, i64 12
  %.idx92.i = mul nuw nsw i64 %8, 6
  %17 = getelementptr inbounds nuw i8, ptr %6, i64 14
  %.idx93.i = shl nsw i64 %8, 3
  %wide.trip.count = zext nneg i32 %4 to i64
  br label %18

18:                                               ; preds = %93, %7
  %.084.i = phi i32 [ %5, %7 ], [ %95, %93 ]
  %.083.i = phi ptr [ %0, %7 ], [ %94, %93 ]
  %.082.i = phi ptr [ %2, %7 ], [ %20, %93 ]
  %19 = getelementptr i8, ptr %.082.i, i64 %.idx90.i
  %20 = getelementptr inbounds nuw i16, ptr %.082.i, i64 %8
  %21 = getelementptr inbounds nuw i8, ptr %.082.i, i64 %.idx91.i
  %22 = getelementptr inbounds nuw i8, ptr %.082.i, i64 %.idx92.i
  %23 = getelementptr inbounds nuw i8, ptr %.082.i, i64 %.idx93.i
  br label %24

24:                                               ; preds = %18, %24
  %indvars.iv = phi i64 [ 0, %18 ], [ %indvars.iv.next, %24 ]
  %25 = getelementptr inbounds nuw i16, ptr %.083.i, i64 %indvars.iv
  %26 = load i16, ptr %25, align 2, !tbaa !8
  %27 = zext i16 %26 to i32
  %28 = load i16, ptr %6, align 2, !tbaa !8
  %29 = sext i16 %28 to i32
  %30 = getelementptr i16, ptr %19, i64 %indvars.iv
  %31 = load i16, ptr %30, align 2, !tbaa !8
  %32 = zext i16 %31 to i32
  %33 = mul nsw i32 %32, %29
  %34 = load i16, ptr %10, align 2, !tbaa !8
  %35 = sext i16 %34 to i32
  %36 = sub i64 %indvars.iv, %11
  %37 = getelementptr inbounds i16, ptr %.082.i, i64 %36
  %38 = load i16, ptr %37, align 2, !tbaa !8
  %39 = zext i16 %38 to i32
  %40 = mul nsw i32 %39, %35
  %41 = load i16, ptr %12, align 2, !tbaa !8
  %42 = sext i16 %41 to i32
  %43 = sub nsw i64 %indvars.iv, %8
  %44 = getelementptr inbounds i16, ptr %.082.i, i64 %43
  %45 = load i16, ptr %44, align 2, !tbaa !8
  %46 = zext i16 %45 to i32
  %47 = mul nsw i32 %46, %42
  %48 = load i16, ptr %13, align 2, !tbaa !8
  %49 = sext i16 %48 to i32
  %50 = getelementptr inbounds nuw i16, ptr %.082.i, i64 %indvars.iv
  %51 = load i16, ptr %50, align 2, !tbaa !8
  %52 = zext i16 %51 to i32
  %53 = mul nsw i32 %52, %49
  %54 = load i16, ptr %14, align 2, !tbaa !8
  %55 = sext i16 %54 to i32
  %56 = getelementptr inbounds nuw i16, ptr %20, i64 %indvars.iv
  %57 = load i16, ptr %56, align 2, !tbaa !8
  %58 = zext i16 %57 to i32
  %59 = mul nsw i32 %58, %55
  %60 = load i16, ptr %15, align 2, !tbaa !8
  %61 = sext i16 %60 to i32
  %62 = getelementptr inbounds nuw i16, ptr %21, i64 %indvars.iv
  %63 = load i16, ptr %62, align 2, !tbaa !8
  %64 = zext i16 %63 to i32
  %65 = mul nsw i32 %64, %61
  %66 = load i16, ptr %16, align 2, !tbaa !8
  %67 = sext i16 %66 to i32
  %68 = getelementptr inbounds nuw i16, ptr %22, i64 %indvars.iv
  %69 = load i16, ptr %68, align 2, !tbaa !8
  %70 = zext i16 %69 to i32
  %71 = mul nsw i32 %70, %67
  %72 = load i16, ptr %17, align 2, !tbaa !8
  %73 = sext i16 %72 to i32
  %74 = getelementptr inbounds nuw i16, ptr %23, i64 %indvars.iv
  %75 = load i16, ptr %74, align 2, !tbaa !8
  %76 = zext i16 %75 to i32
  %77 = mul nsw i32 %76, %73
  %78 = add nsw i32 %33, 64
  %79 = add i32 %78, %40
  %80 = add i32 %79, %47
  %81 = add i32 %80, %53
  %82 = add i32 %81, %59
  %83 = add i32 %82, %65
  %84 = add i32 %83, %71
  %85 = add i32 %84, %77
  %86 = ashr i32 %85, 7
  %87 = tail call i32 @llvm.smax.i32(i32 %86, i32 0)
  %88 = tail call i32 @llvm.umin.i32(i32 %87, i32 4095)
  %89 = add nuw nsw i32 %27, 1
  %90 = add nuw nsw i32 %89, %88
  %91 = lshr i32 %90, 1
  %92 = trunc nuw i32 %91 to i16
  store i16 %92, ptr %25, align 2, !tbaa !8
  %indvars.iv.next = add nuw nsw i64 %indvars.iv, 1
  %exitcond.not = icmp eq i64 %indvars.iv.next, %wide.trip.count
  br i1 %exitcond.not, label %93, label %24, !llvm.loop !82

93:                                               ; preds = %24
  %94 = getelementptr inbounds nuw i16, ptr %.083.i, i64 %9
  %95 = add nsw i32 %.084.i, -1
  %.not.i = icmp eq i32 %95, 0
  br i1 %.not.i, label %do_8tap_1d_c.exit, label %18, !llvm.loop !83

do_8tap_1d_c.exit:                                ; preds = %93
  ret void
}